; ModuleID = '1079.c'
source_filename = "1079.c"
target datalayout = "e-m:e-p270:32:32-p271:32:32-p272:64:64-i64:64-f80:128-n8:16:32:64-S128"
target triple = "x86_64-pc-linux-gnu"

@x = dso_local global i32 0, align 4
@y = dso_local global i32 0, align 4
@z = dso_local global i32 0, align 4
@x1 = dso_local global i32 0, align 4
@y11 = dso_local global i32 0, align 4
@z1 = dso_local global i32 0, align 4
@.str = private unnamed_addr constant [3 x i8] c"%d\00", align 1
@a = common dso_local global [100000 x [3 x i32]] zeroinitializer, align 16
@s = common dso_local global [100000 x i32] zeroinitializer, align 16
@.str.1 = private unnamed_addr constant [7 x i8] c"%d %d\0A\00", align 1

; Function Attrs: noinline nounwind uwtable
define dso_local i32 @main() #0 {
  %1 = alloca i32, align 4
  %2 = alloca i32, align 4
  %3 = alloca i32, align 4
  %4 = alloca i32, align 4
  store i32 0, i32* %1, align 4
  %5 = call i32 (i8*, ...) @__isoc99_scanf(i8* getelementptr inbounds ([3 x i8], [3 x i8]* @.str, i64 0, i64 0), i32* %2)
  store i32 1, i32* %3, align 4
  br label %6

6:                                                ; preds = %40, %0
  %7 = load i32, i32* %3, align 4
  %8 = load i32, i32* %2, align 4
  %9 = icmp sle i32 %7, %8
  br i1 %9, label %10, label %43

10:                                               ; preds = %6
  store i32 0, i32* %4, align 4
  br label %11

11:                                               ; preds = %22, %10
  %12 = load i32, i32* %4, align 4
  %13 = icmp slt i32 %12, 3
  br i1 %13, label %14, label %25

14:                                               ; preds = %11
  %15 = load i32, i32* %3, align 4
  %16 = sext i32 %15 to i64
  %17 = getelementptr inbounds [100000 x [3 x i32]], [100000 x [3 x i32]]* @a, i64 0, i64 %16
  %18 = load i32, i32* %4, align 4
  %19 = sext i32 %18 to i64
  %20 = getelementptr inbounds [3 x i32], [3 x i32]* %17, i64 0, i64 %19
  %21 = call i32 (i8*, ...) @__isoc99_scanf(i8* getelementptr inbounds ([3 x i8], [3 x i8]* @.str, i64 0, i64 0), i32* %20)
  br label %22

22:                                               ; preds = %14
  %23 = load i32, i32* %4, align 4
  %24 = add nsw i32 %23, 1
  store i32 %24, i32* %4, align 4
  br label %11

25:                                               ; preds = %11
  %26 = load i32, i32* %3, align 4
  %27 = sext i32 %26 to i64
  %28 = getelementptr inbounds [100000 x [3 x i32]], [100000 x [3 x i32]]* @a, i64 0, i64 %27
  %29 = getelementptr inbounds [3 x i32], [3 x i32]* %28, i64 0, i64 1
  %30 = load i32, i32* %29, align 4
  %31 = load i32, i32* %3, align 4
  %32 = sext i32 %31 to i64
  %33 = getelementptr inbounds [100000 x [3 x i32]], [100000 x [3 x i32]]* @a, i64 0, i64 %32
  %34 = getelementptr inbounds [3 x i32], [3 x i32]* %33, i64 0, i64 2
  %35 = load i32, i32* %34, align 4
  %36 = add nsw i32 %30, %35
  %37 = load i32, i32* %3, align 4
  %38 = sext i32 %37 to i64
  %39 = getelementptr inbounds [100000 x i32], [100000 x i32]* @s, i64 0, i64 %38
  store i32 %36, i32* %39, align 4
  br label %40

40:                                               ; preds = %25
  %41 = load i32, i32* %3, align 4
  %42 = add nsw i32 %41, 1
  store i32 %42, i32* %3, align 4
  br label %6

43:                                               ; preds = %6
  store i32 1, i32* %3, align 4
  br label %44

44:                                               ; preds = %66, %43
  %45 = load i32, i32* %3, align 4
  %46 = load i32, i32* %2, align 4
  %47 = icmp sle i32 %45, %46
  br i1 %47, label %48, label %69

48:                                               ; preds = %44
  %49 = load i32, i32* %3, align 4
  %50 = sext i32 %49 to i64
  %51 = getelementptr inbounds [100000 x i32], [100000 x i32]* @s, i64 0, i64 %50
  %52 = load i32, i32* %51, align 4
  %53 = load i32, i32* @x, align 4
  %54 = icmp sgt i32 %52, %53
  br i1 %54, label %55, label %65

55:                                               ; preds = %48
  %56 = load i32, i32* %3, align 4
  %57 = sext i32 %56 to i64
  %58 = getelementptr inbounds [100000 x i32], [100000 x i32]* @s, i64 0, i64 %57
  %59 = load i32, i32* %58, align 4
  store i32 %59, i32* @x, align 4
  %60 = load i32, i32* %3, align 4
  %61 = sext i32 %60 to i64
  %62 = getelementptr inbounds [100000 x [3 x i32]], [100000 x [3 x i32]]* @a, i64 0, i64 %61
  %63 = getelementptr inbounds [3 x i32], [3 x i32]* %62, i64 0, i64 0
  %64 = load i32, i32* %63, align 4
  store i32 %64, i32* @x1, align 4
  br label %65

65:                                               ; preds = %55, %48
  br label %66

66:                                               ; preds = %65
  %67 = load i32, i32* %3, align 4
  %68 = add nsw i32 %67, 1
  store i32 %68, i32* %3, align 4
  br label %44

69:                                               ; preds = %44
  store i32 1, i32* %3, align 4
  br label %70

70:                                               ; preds = %96, %69
  %71 = load i32, i32* %3, align 4
  %72 = load i32, i32* %2, align 4
  %73 = icmp sle i32 %71, %72
  br i1 %73, label %74, label %99

74:                                               ; preds = %70
  %75 = load i32, i32* %3, align 4
  %76 = sext i32 %75 to i64
  %77 = getelementptr inbounds [100000 x i32], [100000 x i32]* @s, i64 0, i64 %76
  %78 = load i32, i32* %77, align 4
  %79 = load i32, i32* @y, align 4
  %80 = icmp sgt i32 %78, %79
  br i1 %80, label %81, label %95

81:                                               ; preds = %74
  %82 = load i32, i32* %3, align 4
  %83 = load i32, i32* @x1, align 4
  %84 = icmp ne i32 %82, %83
  br i1 %84, label %85, label %95

85:                                               ; preds = %81
  %86 = load i32, i32* %3, align 4
  %87 = sext i32 %86 to i64
  %88 = getelementptr inbounds [100000 x i32], [100000 x i32]* @s, i64 0, i64 %87
  %89 = load i32, i32* %88, align 4
  store i32 %89, i32* @y, align 4
  %90 = load i32, i32* %3, align 4
  %91 = sext i32 %90 to i64
  %92 = getelementptr inbounds [100000 x [3 x i32]], [100000 x [3 x i32]]* @a, i64 0, i64 %91
  %93 = getelementptr inbounds [3 x i32], [3 x i32]* %92, i64 0, i64 0
  %94 = load i32, i32* %93, align 4
  store i32 %94, i32* @y11, align 4
  br label %95

95:                                               ; preds = %85, %81, %74
  br label %96

96:                                               ; preds = %95
  %97 = load i32, i32* %3, align 4
  %98 = add nsw i32 %97, 1
  store i32 %98, i32* %3, align 4
  br label %70

99:                                               ; preds = %70
  store i32 1, i32* %3, align 4
  br label %100

100:                                              ; preds = %130, %99
  %101 = load i32, i32* %3, align 4
  %102 = load i32, i32* %2, align 4
  %103 = icmp sle i32 %101, %102
  br i1 %103, label %104, label %133

104:                                              ; preds = %100
  %105 = load i32, i32* %3, align 4
  %106 = sext i32 %105 to i64
  %107 = getelementptr inbounds [100000 x i32], [100000 x i32]* @s, i64 0, i64 %106
  %108 = load i32, i32* %107, align 4
  %109 = load i32, i32* @z, align 4
  %110 = icmp sgt i32 %108, %109
  br i1 %110, label %111, label %129

111:                                              ; preds = %104
  %112 = load i32, i32* %3, align 4
  %113 = load i32, i32* @x1, align 4
  %114 = icmp ne i32 %112, %113
  br i1 %114, label %115, label %129

115:                                              ; preds = %111
  %116 = load i32, i32* %3, align 4
  %117 = load i32, i32* @y11, align 4
  %118 = icmp ne i32 %116, %117
  br i1 %118, label %119, label %129

119:                                              ; preds = %115
  %120 = load i32, i32* %3, align 4
  %121 = sext i32 %120 to i64
  %122 = getelementptr inbounds [100000 x i32], [100000 x i32]* @s, i64 0, i64 %121
  %123 = load i32, i32* %122, align 4
  store i32 %123, i32* @z, align 4
  %124 = load i32, i32* %3, align 4
  %125 = sext i32 %124 to i64
  %126 = getelementptr inbounds [100000 x [3 x i32]], [100000 x [3 x i32]]* @a, i64 0, i64 %125
  %127 = getelementptr inbounds [3 x i32], [3 x i32]* %126, i64 0, i64 0
  %128 = load i32, i32* %127, align 4
  store i32 %128, i32* @z1, align 4
  br label %129

129:                                              ; preds = %119, %115, %111, %104
  br label %130

130:                                              ; preds = %129
  %131 = load i32, i32* %3, align 4
  %132 = add nsw i32 %131, 1
  store i32 %132, i32* %3, align 4
  br label %100

133:                                              ; preds = %100
  %134 = load i32, i32* @x1, align 4
  %135 = load i32, i32* @x, align 4
  %136 = call i32 (i8*, ...) @printf(i8* getelementptr inbounds ([7 x i8], [7 x i8]* @.str.1, i64 0, i64 0), i32 %134, i32 %135)
  %137 = load i32, i32* @y11, align 4
  %138 = load i32, i32* @y, align 4
  %139 = call i32 (i8*, ...) @printf(i8* getelementptr inbounds ([7 x i8], [7 x i8]* @.str.1, i64 0, i64 0), i32 %137, i32 %138)
  %140 = load i32, i32* @z1, align 4
  %141 = load i32, i32* @z, align 4
  %142 = call i32 (i8*, ...) @printf(i8* getelementptr inbounds ([7 x i8], [7 x i8]* @.str.1, i64 0, i64 0), i32 %140, i32 %141)
  ret i32 0
}

declare dso_local i32 @__isoc99_scanf(i8*, ...) #1

declare dso_local i32 @printf(i8*, ...) #1


!llvm.module.flags = !{!0}
!llvm.ident = !{!1}

!0 = !{i32 1, !"wchar_size", i32 4}
!1 = !{!"clang version 10.0.0-4ubuntu1 "}
